; Function Attrs: nounwind sspstrong uwtable
define internal i64 @allocation_class_path(i64 %0, i64 noundef %1) #0 {
  %3 = alloca i64, align 8
  %4 = load ptr, ptr @tmp_trace_arg, align 8, !tbaa !6
  %.not.i = icmp eq ptr %4, null
  br i1 %.not.i, label %lookup_allocation_info.exit.thread, label %5

5:                                                ; preds = %2
  call void @llvm.lifetime.start.p0(i64 8, ptr nonnull %3) #10
  %6 = getelementptr inbounds nuw i8, ptr %4, i64 24
  %7 = load ptr, ptr %6, align 8, !tbaa !11
  %8 = call i32 @rb_st_lookup(ptr noundef %7, i64 noundef %1, ptr noundef nonnull %3) #10
  %.not3.not.i = icmp eq i32 %8, 0
  %9 = load i64, ptr %3, align 8
  call void @llvm.lifetime.end.p0(i64 8, ptr nonnull %3) #10
  %.not = icmp eq i64 %9, 0
  %or.cond = select i1 %.not3.not.i, i1 true, i1 %.not
  br i1 %or.cond, label %lookup_allocation_info.exit.thread, label %10

10:                                               ; preds = %5
  %11 = inttoptr i64 %9 to ptr
  %12 = getelementptr inbounds nuw i8, ptr %11, i64 40
  %13 = load ptr, ptr %12, align 8, !tbaa !31
  %.not6 = icmp eq ptr %13, null
  br i1 %.not6, label %lookup_allocation_info.exit.thread, label %14

14:                                               ; preds = %10
  %15 = call i64 @rb_str_new_cstr(ptr noundef nonnull %13) #10
  br label %lookup_allocation_info.exit.thread

lookup_allocation_info.exit.thread:               ; preds = %5, %2, %10, %14
  %.0 = phi i64 [ %15, %14 ], [ 4, %10 ], [ 4, %2 ], [ 4, %5 ]
  ret i64 %.0
}